; Function Attrs: inlinehint mustprogress uwtable
define internal noundef nonnull ptr @_ZZN8pybind116detail16type_caster_baseIZ34test_submodule_kwargs_and_defaultsRNS_7module_EE10CustomReprE21make_move_constructorIS4_vEEDTcmnw_T_piclsr3stdE7declvalIOS7_EEEtlPFPvPKvEEEPKS7_ENUlSB_E_8__invokeESB_(ptr noundef %0) #11 align 2 personality ptr @__gxx_personality_v0 {
  %2 = tail call noalias noundef nonnull dereferenceable(32) ptr @_Znwm(i64 noundef 32) #34
  %3 = getelementptr inbounds nuw i8, ptr %2, i64 16
  store ptr %3, ptr %2, align 8, !tbaa !74
  %4 = load ptr, ptr %0, align 8, !tbaa !11
  %5 = getelementptr inbounds nuw i8, ptr %0, i64 16
  %6 = icmp eq ptr %4, %5
  br i1 %6, label %7, label %_ZNKSt7__cxx1112basic_stringIcSt11char_traitsIcESaIcEE11_M_is_localEv.exit.i.i.i

7:                                                ; preds = %1
  %8 = getelementptr inbounds nuw i8, ptr %0, i64 8
  %9 = load i64, ptr %8, align 8, !tbaa !78
  %10 = icmp ult i64 %9, 16
  tail call void @llvm.assume(i1 %10)
  %11 = add nuw nsw i64 %9, 1
  tail call void @llvm.memcpy.p0.p0.i64(ptr noundef nonnull align 8 dereferenceable(1) %3, ptr noundef nonnull align 8 dereferenceable(1) %5, i64 %11, i1 false)
  br label %_ZZN8pybind116detail16type_caster_baseIZ34test_submodule_kwargs_and_defaultsRNS_7module_EE10CustomReprE21make_move_constructorIS4_vEEDTcmnw_T_piclsr3stdE7declvalIOS7_EEEtlPFPvPKvEEEPKS7_ENKUlSB_E_clESB_.exit

_ZNKSt7__cxx1112basic_stringIcSt11char_traitsIcESaIcEE11_M_is_localEv.exit.i.i.i: ; preds = %1
  store ptr %4, ptr %2, align 8, !tbaa !11
  %12 = load i64, ptr %5, align 8, !tbaa !79
  store i64 %12, ptr %3, align 8, !tbaa !79
  %.phi.trans.insert.i = getelementptr inbounds nuw i8, ptr %0, i64 8
  %.pre.i = load i64, ptr %.phi.trans.insert.i, align 8, !tbaa !78
  br label %_ZZN8pybind116detail16type_caster_baseIZ34test_submodule_kwargs_and_defaultsRNS_7module_EE10CustomReprE21make_move_constructorIS4_vEEDTcmnw_T_piclsr3stdE7declvalIOS7_EEEtlPFPvPKvEEEPKS7_ENKUlSB_E_clESB_.exit

_ZZN8pybind116detail16type_caster_baseIZ34test_submodule_kwargs_and_defaultsRNS_7module_EE10CustomReprE21make_move_constructorIS4_vEEDTcmnw_T_piclsr3stdE7declvalIOS7_EEEtlPFPvPKvEEEPKS7_ENKUlSB_E_clESB_.exit: ; preds = %7, %_ZNKSt7__cxx1112basic_stringIcSt11char_traitsIcESaIcEE11_M_is_localEv.exit.i.i.i
  %13 = phi i64 [ %9, %7 ], [ %.pre.i, %_ZNKSt7__cxx1112basic_stringIcSt11char_traitsIcESaIcEE11_M_is_localEv.exit.i.i.i ]
  %14 = getelementptr inbounds nuw i8, ptr %0, i64 8
  %15 = getelementptr inbounds nuw i8, ptr %2, i64 8
  store i64 %13, ptr %15, align 8, !tbaa !78
  store ptr %5, ptr %0, align 8, !tbaa !11
  store i64 0, ptr %14, align 8, !tbaa !78
  store i8 0, ptr %5, align 1, !tbaa !79
  ret ptr %2
}